target datalayout = "e-m:e-p270:32:32-p271:32:32-p272:64:64-i64:64-i128:128-f80:128-n8:16:32:64-S128"
target triple = "x86_64-pc-linux-gnu"

%struct.XML_Parser_Struct = type { i32, ptr, ptr, ptr, ptr, ptr, ptr, ptr, ptr, ptr, ptr, ptr, ptr, ptr, ptr }

@xmlFree = external global ptr, align 8
@.str.4 = private unnamed_addr constant [2 x i8] c"<\00", align 1
@.str.5 = private unnamed_addr constant [9 x i8] c" %s=\22%s\22\00", align 1
@.str.6 = private unnamed_addr constant [2 x i8] c">\00", align 1

; Function Attrs: nounwind uwtable
define internal void @start_element_handler(ptr noundef %0, ptr noundef %1, ptr noundef %2) #0 {
  %4 = alloca ptr, align 8
  %5 = alloca ptr, align 8
  %6 = alloca ptr, align 8
  %7 = alloca ptr, align 8
  %8 = alloca ptr, align 8
  %9 = alloca i32, align 4
  %10 = alloca i32, align 4
  %11 = alloca ptr, align 8
  %12 = alloca ptr, align 8
  %13 = alloca ptr, align 8
  %14 = alloca i32, align 4
  store ptr %0, ptr %4, align 8, !tbaa !53
  store ptr %1, ptr %5, align 8, !tbaa !4
  store ptr %2, ptr %6, align 8, !tbaa !96
  call void @llvm.lifetime.start.p0(i64 8, ptr %7) #8
  %15 = load ptr, ptr %4, align 8, !tbaa !53
  store ptr %15, ptr %7, align 8, !tbaa !11
  call void @llvm.lifetime.start.p0(i64 8, ptr %8) #8
  store ptr null, ptr %8, align 8, !tbaa !4
  %16 = load ptr, ptr %7, align 8, !tbaa !11
  %17 = getelementptr inbounds nuw %struct.XML_Parser_Struct, ptr %16, i32 0, i32 4
  %18 = load ptr, ptr %17, align 8, !tbaa !55
  %19 = icmp eq ptr %18, null
  br i1 %19, label %20, label %78

20:                                               ; preds = %3
  %21 = load ptr, ptr %7, align 8, !tbaa !11
  %22 = getelementptr inbounds nuw %struct.XML_Parser_Struct, ptr %21, i32 0, i32 9
  %23 = load ptr, ptr %22, align 8, !tbaa !60
  %24 = icmp ne ptr %23, null
  br i1 %24, label %25, label %77

25:                                               ; preds = %20
  call void @llvm.lifetime.start.p0(i64 4, ptr %9) #8
  store i32 0, ptr %9, align 4, !tbaa !66
  %26 = load ptr, ptr %5, align 8, !tbaa !4
  %27 = load ptr, ptr %5, align 8, !tbaa !4
  %28 = call i32 @xmlStrlen(ptr noundef %27)
  %29 = call ptr @xmlStrncatNew(ptr noundef @.str.4, ptr noundef %26, i32 noundef %28)
  store ptr %29, ptr %8, align 8, !tbaa !4
  %30 = load ptr, ptr %6, align 8, !tbaa !96
  %31 = icmp ne ptr %30, null
  br i1 %31, label %32, label %63

32:                                               ; preds = %25
  br label %33

33:                                               ; preds = %40, %32
  %34 = load ptr, ptr %6, align 8, !tbaa !96
  %35 = load i32, ptr %9, align 4, !tbaa !66
  %36 = sext i32 %35 to i64
  %37 = getelementptr inbounds ptr, ptr %34, i64 %36
  %38 = load ptr, ptr %37, align 8, !tbaa !4
  %39 = icmp ne ptr %38, null
  br i1 %39, label %40, label %62

40:                                               ; preds = %33
  call void @llvm.lifetime.start.p0(i64 4, ptr %10) #8
  call void @llvm.lifetime.start.p0(i64 8, ptr %11) #8
  call void @llvm.lifetime.start.p0(i64 8, ptr %12) #8
  call void @llvm.lifetime.start.p0(i64 8, ptr %13) #8
  %41 = load ptr, ptr %6, align 8, !tbaa !96
  %42 = load i32, ptr %9, align 4, !tbaa !66
  %43 = add nsw i32 %42, 1
  store i32 %43, ptr %9, align 4, !tbaa !66
  %44 = sext i32 %42 to i64
  %45 = getelementptr inbounds ptr, ptr %41, i64 %44
  %46 = load ptr, ptr %45, align 8, !tbaa !4
  store ptr %46, ptr %12, align 8, !tbaa !4
  %47 = load ptr, ptr %6, align 8, !tbaa !96
  %48 = load i32, ptr %9, align 4, !tbaa !66
  %49 = add nsw i32 %48, 1
  store i32 %49, ptr %9, align 4, !tbaa !66
  %50 = sext i32 %48 to i64
  %51 = getelementptr inbounds ptr, ptr %47, i64 %50
  %52 = load ptr, ptr %51, align 8, !tbaa !4
  store ptr %52, ptr %13, align 8, !tbaa !4
  %53 = load ptr, ptr %12, align 8, !tbaa !4
  %54 = load ptr, ptr %13, align 8, !tbaa !4
  %55 = call i64 (ptr, i64, ptr, ...) @zend_spprintf(ptr noundef %11, i64 noundef 0, ptr noundef @.str.5, ptr noundef %53, ptr noundef %54)
  %56 = trunc i64 %55 to i32
  store i32 %56, ptr %10, align 4, !tbaa !66
  %57 = load ptr, ptr %8, align 8, !tbaa !4
  %58 = load ptr, ptr %11, align 8, !tbaa !4
  %59 = load i32, ptr %10, align 4, !tbaa !66
  %60 = call ptr @xmlStrncat(ptr noundef %57, ptr noundef %58, i32 noundef %59)
  store ptr %60, ptr %8, align 8, !tbaa !4
  %61 = load ptr, ptr %11, align 8, !tbaa !4
  call void @_efree(ptr noundef %61)
  call void @llvm.lifetime.end.p0(i64 8, ptr %13) #8
  call void @llvm.lifetime.end.p0(i64 8, ptr %12) #8
  call void @llvm.lifetime.end.p0(i64 8, ptr %11) #8
  call void @llvm.lifetime.end.p0(i64 4, ptr %10) #8
  br label %33

62:                                               ; preds = %33
  br label %63

63:                                               ; preds = %62, %25
  %64 = load ptr, ptr %8, align 8, !tbaa !4
  %65 = call ptr @xmlStrncat(ptr noundef %64, ptr noundef @.str.6, i32 noundef 1)
  store ptr %65, ptr %8, align 8, !tbaa !4
  %66 = load ptr, ptr %7, align 8, !tbaa !11
  %67 = getelementptr inbounds nuw %struct.XML_Parser_Struct, ptr %66, i32 0, i32 9
  %68 = load ptr, ptr %67, align 8, !tbaa !60
  %69 = load ptr, ptr %7, align 8, !tbaa !11
  %70 = getelementptr inbounds nuw %struct.XML_Parser_Struct, ptr %69, i32 0, i32 2
  %71 = load ptr, ptr %70, align 8, !tbaa !54
  %72 = load ptr, ptr %8, align 8, !tbaa !4
  %73 = load ptr, ptr %8, align 8, !tbaa !4
  %74 = call i32 @xmlStrlen(ptr noundef %73)
  call void %68(ptr noundef %71, ptr noundef %72, i32 noundef %74)
  %75 = load ptr, ptr @xmlFree, align 8, !tbaa !53
  %76 = load ptr, ptr %8, align 8, !tbaa !4
  call void %75(ptr noundef %76)
  call void @llvm.lifetime.end.p0(i64 4, ptr %9) #8
  br label %77

77:                                               ; preds = %63, %20
  store i32 1, ptr %14, align 4
  br label %87

78:                                               ; preds = %3
  %79 = load ptr, ptr %7, align 8, !tbaa !11
  %80 = getelementptr inbounds nuw %struct.XML_Parser_Struct, ptr %79, i32 0, i32 4
  %81 = load ptr, ptr %80, align 8, !tbaa !55
  %82 = load ptr, ptr %7, align 8, !tbaa !11
  %83 = getelementptr inbounds nuw %struct.XML_Parser_Struct, ptr %82, i32 0, i32 2
  %84 = load ptr, ptr %83, align 8, !tbaa !54
  %85 = load ptr, ptr %5, align 8, !tbaa !4
  %86 = load ptr, ptr %6, align 8, !tbaa !96
  call void %81(ptr noundef %84, ptr noundef %85, ptr noundef %86)
  store i32 0, ptr %14, align 4
  br label %87

87:                                               ; preds = %78, %77
  call void @llvm.lifetime.end.p0(i64 8, ptr %8) #8
  call void @llvm.lifetime.end.p0(i64 8, ptr %7) #8
  %88 = load i32, ptr %14, align 4
  switch i32 %88, label %90 [
    i32 0, label %89
    i32 1, label %89
  ]

89:                                               ; preds = %87, %87
  ret void

90:                                               ; preds = %87
  unreachable
}