; Function Attrs: nounwind uwtable
define internal void @start_element_handler(ptr noundef readonly captures(none) %0, ptr noundef %1, ptr noundef %2) #0 {
  %4 = alloca ptr, align 8
  %5 = getelementptr inbounds nuw i8, ptr %0, i64 32
  %6 = load ptr, ptr %5, align 8, !tbaa !48
  %7 = icmp eq ptr %6, null
  br i1 %7, label %8, label %32

8:                                                ; preds = %3
  %9 = getelementptr inbounds nuw i8, ptr %0, i64 72
  %10 = load ptr, ptr %9, align 8, !tbaa !53
  %.not = icmp eq ptr %10, null
  br i1 %.not, label %35, label %11

11:                                               ; preds = %8
  %12 = tail call i32 @xmlStrlen(ptr noundef %1) #11
  %13 = tail call ptr @xmlStrncatNew(ptr noundef nonnull @.str.4, ptr noundef %1, i32 noundef %12) #11
  %.not27 = icmp eq ptr %2, null
  br i1 %.not27, label %.loopexit, label %.preheader

.preheader:                                       ; preds = %11
  %14 = load ptr, ptr %2, align 8, !tbaa !61
  %.not2829 = icmp eq ptr %14, null
  br i1 %.not2829, label %.loopexit, label %.lr.ph

.lr.ph:                                           ; preds = %.preheader, %.lr.ph
  %indvars.iv = phi i64 [ %indvars.iv.next, %.lr.ph ], [ 0, %.preheader ]
  %15 = phi ptr [ %25, %.lr.ph ], [ %14, %.preheader ]
  %.131 = phi ptr [ %22, %.lr.ph ], [ %13, %.preheader ]
  call void @llvm.lifetime.start.p0(i64 8, ptr nonnull %4) #11
  %16 = or disjoint i64 %indvars.iv, 1
  %indvars.iv.next = add nuw nsw i64 %indvars.iv, 2
  %17 = getelementptr inbounds nuw ptr, ptr %2, i64 %16
  %18 = load ptr, ptr %17, align 8, !tbaa !61
  %19 = call i64 (ptr, i64, ptr, ...) @zend_spprintf(ptr noundef nonnull %4, i64 noundef 0, ptr noundef nonnull @.str.5, ptr noundef nonnull %15, ptr noundef %18) #11
  %20 = trunc i64 %19 to i32
  %21 = load ptr, ptr %4, align 8, !tbaa !61
  %22 = call ptr @xmlStrncat(ptr noundef %.131, ptr noundef %21, i32 noundef %20) #11
  %23 = load ptr, ptr %4, align 8, !tbaa !61
  call void @_efree(ptr noundef %23) #11
  call void @llvm.lifetime.end.p0(i64 8, ptr nonnull %4) #11
  %24 = getelementptr inbounds nuw ptr, ptr %2, i64 %indvars.iv.next
  %25 = load ptr, ptr %24, align 8, !tbaa !61
  %.not28 = icmp eq ptr %25, null
  br i1 %.not28, label %.loopexit, label %.lr.ph

.loopexit:                                        ; preds = %.lr.ph, %.preheader, %11
  %.0 = phi ptr [ %13, %11 ], [ %13, %.preheader ], [ %22, %.lr.ph ]
  %26 = call ptr @xmlStrncat(ptr noundef %.0, ptr noundef nonnull @.str.6, i32 noundef 1) #11
  %27 = load ptr, ptr %9, align 8, !tbaa !53
  %28 = getelementptr inbounds nuw i8, ptr %0, i64 16
  %29 = load ptr, ptr %28, align 8, !tbaa !47
  %30 = call i32 @xmlStrlen(ptr noundef %26) #11
  call void %27(ptr noundef %29, ptr noundef %26, i32 noundef %30) #11
  %31 = load ptr, ptr @xmlFree, align 8, !tbaa !72
  call void %31(ptr noundef %26) #11
  br label %35

32:                                               ; preds = %3
  %33 = getelementptr inbounds nuw i8, ptr %0, i64 16
  %34 = load ptr, ptr %33, align 8, !tbaa !47
  tail call void %6(ptr noundef %34, ptr noundef %1, ptr noundef %2) #11
  br label %35

35:                                               ; preds = %8, %.loopexit, %32
  ret void
}